target datalayout = "e-m:e-p270:32:32-p271:32:32-p272:64:64-i64:64-i128:128-f80:128-n8:16:32:64-S128"
target triple = "x86_64-pc-linux-gnu"

%struct.gz_state = type { i32, i32, ptr, i64, i32, i32, ptr, ptr, ptr, i32, i32, i64, i64, i32, i32, i32, i32, i64, i32, i32, ptr, %struct.z_stream_s }
%struct.z_stream_s = type { ptr, i32, i64, ptr, i32, i64, ptr, ptr, ptr, ptr, ptr, i32, i64, i64 }

; Function Attrs: nounwind uwtable
define internal i32 @gz_skip(ptr noundef %0, i64 noundef %1) #0 {
  %3 = alloca i32, align 4
  %4 = alloca ptr, align 8
  %5 = alloca i64, align 8
  %6 = alloca i32, align 4
  %7 = alloca i32, align 4
  store ptr %0, ptr %4, align 8, !tbaa !3
  store i64 %1, ptr %5, align 8, !tbaa !31
  call void @llvm.lifetime.start.p0(i64 4, ptr %6) #8
  br label %8

8:                                                ; preds = %72, %2
  %9 = load i64, ptr %5, align 8, !tbaa !31
  %10 = icmp ne i64 %9, 0
  br i1 %10, label %11, label %73

11:                                               ; preds = %8
  %12 = load ptr, ptr %4, align 8, !tbaa !3
  %13 = getelementptr inbounds nuw %struct.gz_state, ptr %12, i32 0, i32 9
  %14 = load i32, ptr %13, align 8, !tbaa !20
  %15 = icmp ne i32 %14, 0
  br i1 %15, label %16, label %53

16:                                               ; preds = %11
  %17 = load ptr, ptr %4, align 8, !tbaa !3
  %18 = getelementptr inbounds nuw %struct.gz_state, ptr %17, i32 0, i32 9
  %19 = load i32, ptr %18, align 8, !tbaa !20
  %20 = zext i32 %19 to i64
  %21 = load i64, ptr %5, align 8, !tbaa !31
  %22 = icmp sgt i64 %20, %21
  br i1 %22, label %23, label %26

23:                                               ; preds = %16
  %24 = load i64, ptr %5, align 8, !tbaa !31
  %25 = trunc i64 %24 to i32
  br label %30

26:                                               ; preds = %16
  %27 = load ptr, ptr %4, align 8, !tbaa !3
  %28 = getelementptr inbounds nuw %struct.gz_state, ptr %27, i32 0, i32 9
  %29 = load i32, ptr %28, align 8, !tbaa !20
  br label %30

30:                                               ; preds = %26, %23
  %31 = phi i32 [ %25, %23 ], [ %29, %26 ]
  store i32 %31, ptr %6, align 4, !tbaa !7
  %32 = load i32, ptr %6, align 4, !tbaa !7
  %33 = load ptr, ptr %4, align 8, !tbaa !3
  %34 = getelementptr inbounds nuw %struct.gz_state, ptr %33, i32 0, i32 9
  %35 = load i32, ptr %34, align 8, !tbaa !20
  %36 = sub i32 %35, %32
  store i32 %36, ptr %34, align 8, !tbaa !20
  %37 = load i32, ptr %6, align 4, !tbaa !7
  %38 = load ptr, ptr %4, align 8, !tbaa !3
  %39 = getelementptr inbounds nuw %struct.gz_state, ptr %38, i32 0, i32 8
  %40 = load ptr, ptr %39, align 8, !tbaa !21
  %41 = zext i32 %37 to i64
  %42 = getelementptr inbounds nuw i8, ptr %40, i64 %41
  store ptr %42, ptr %39, align 8, !tbaa !21
  %43 = load i32, ptr %6, align 4, !tbaa !7
  %44 = zext i32 %43 to i64
  %45 = load ptr, ptr %4, align 8, !tbaa !3
  %46 = getelementptr inbounds nuw %struct.gz_state, ptr %45, i32 0, i32 3
  %47 = load i64, ptr %46, align 8, !tbaa !28
  %48 = add nsw i64 %47, %44
  store i64 %48, ptr %46, align 8, !tbaa !28
  %49 = load i32, ptr %6, align 4, !tbaa !7
  %50 = zext i32 %49 to i64
  %51 = load i64, ptr %5, align 8, !tbaa !31
  %52 = sub nsw i64 %51, %50
  store i64 %52, ptr %5, align 8, !tbaa !31
  br label %72

53:                                               ; preds = %11
  %54 = load ptr, ptr %4, align 8, !tbaa !3
  %55 = getelementptr inbounds nuw %struct.gz_state, ptr %54, i32 0, i32 10
  %56 = load i32, ptr %55, align 4, !tbaa !22
  %57 = icmp ne i32 %56, 0
  br i1 %57, label %58, label %65

58:                                               ; preds = %53
  %59 = load ptr, ptr %4, align 8, !tbaa !3
  %60 = getelementptr inbounds nuw %struct.gz_state, ptr %59, i32 0, i32 21
  %61 = getelementptr inbounds nuw %struct.z_stream_s, ptr %60, i32 0, i32 1
  %62 = load i32, ptr %61, align 8, !tbaa !32
  %63 = icmp eq i32 %62, 0
  br i1 %63, label %64, label %65

64:                                               ; preds = %58
  br label %73

65:                                               ; preds = %58, %53
  %66 = load ptr, ptr %4, align 8, !tbaa !3
  %67 = call i32 @gz_make(ptr noundef %66)
  %68 = icmp eq i32 %67, -1
  br i1 %68, label %69, label %70

69:                                               ; preds = %65
  store i32 -1, ptr %3, align 4
  store i32 1, ptr %7, align 4
  br label %74

70:                                               ; preds = %65
  br label %71

71:                                               ; preds = %70
  br label %72

72:                                               ; preds = %71, %30
  br label %8, !llvm.loop !33

73:                                               ; preds = %64, %8
  store i32 0, ptr %3, align 4
  store i32 1, ptr %7, align 4
  br label %74

74:                                               ; preds = %73, %69
  call void @llvm.lifetime.end.p0(i64 4, ptr %6) #8
  %75 = load i32, ptr %3, align 4
  ret i32 %75
}

; Function Attrs: nounwind uwtable
define ptr @gzgets(ptr noundef %0, ptr noundef %1, i32 noundef %2) #0 {
  %4 = alloca ptr, align 8
  %5 = alloca ptr, align 8
  %6 = alloca ptr, align 8
  %7 = alloca i32, align 4
  %8 = alloca i32, align 4
  %9 = alloca i32, align 4
  %10 = alloca ptr, align 8
  %11 = alloca ptr, align 8
  %12 = alloca ptr, align 8
  %13 = alloca i32, align 4
  store ptr %0, ptr %5, align 8, !tbaa !3
  store ptr %1, ptr %6, align 8, !tbaa !35
  store i32 %2, ptr %7, align 4, !tbaa !7
  call void @llvm.lifetime.start.p0(i64 4, ptr %8) #8
  call void @llvm.lifetime.start.p0(i64 4, ptr %9) #8
  call void @llvm.lifetime.start.p0(i64 8, ptr %10) #8
  call void @llvm.lifetime.start.p0(i64 8, ptr %11) #8
  call void @llvm.lifetime.start.p0(i64 8, ptr %12) #8
  %14 = load ptr, ptr %5, align 8, !tbaa !3
  %15 = icmp eq ptr %14, null
  br i1 %15, label %22, label %16

16:                                               ; preds = %3
  %17 = load ptr, ptr %6, align 8, !tbaa !35
  %18 = icmp eq ptr %17, null
  br i1 %18, label %22, label %19

19:                                               ; preds = %16
  %20 = load i32, ptr %7, align 4, !tbaa !7
  %21 = icmp slt i32 %20, 1
  br i1 %21, label %22, label %23

22:                                               ; preds = %19, %16, %3
  store ptr null, ptr %4, align 8
  store i32 1, ptr %13, align 4
  br label %156

23:                                               ; preds = %19
  %24 = load ptr, ptr %5, align 8, !tbaa !3
  store ptr %24, ptr %12, align 8, !tbaa !3
  %25 = load ptr, ptr %12, align 8, !tbaa !3
  %26 = getelementptr inbounds nuw %struct.gz_state, ptr %25, i32 0, i32 0
  %27 = load i32, ptr %26, align 8, !tbaa !11
  %28 = icmp ne i32 %27, 7247
  br i1 %28, label %34, label %29

29:                                               ; preds = %23
  %30 = load ptr, ptr %12, align 8, !tbaa !3
  %31 = getelementptr inbounds nuw %struct.gz_state, ptr %30, i32 0, i32 19
  %32 = load i32, ptr %31, align 4, !tbaa !17
  %33 = icmp ne i32 %32, 0
  br i1 %33, label %34, label %35

34:                                               ; preds = %29, %23
  store ptr null, ptr %4, align 8
  store i32 1, ptr %13, align 4
  br label %156

35:                                               ; preds = %29
  %36 = load ptr, ptr %12, align 8, !tbaa !3
  %37 = getelementptr inbounds nuw %struct.gz_state, ptr %36, i32 0, i32 18
  %38 = load i32, ptr %37, align 8, !tbaa !18
  %39 = icmp ne i32 %38, 0
  br i1 %39, label %40, label %51

40:                                               ; preds = %35
  %41 = load ptr, ptr %12, align 8, !tbaa !3
  %42 = getelementptr inbounds nuw %struct.gz_state, ptr %41, i32 0, i32 18
  store i32 0, ptr %42, align 8, !tbaa !18
  %43 = load ptr, ptr %12, align 8, !tbaa !3
  %44 = load ptr, ptr %12, align 8, !tbaa !3
  %45 = getelementptr inbounds nuw %struct.gz_state, ptr %44, i32 0, i32 17
  %46 = load i64, ptr %45, align 8, !tbaa !19
  %47 = call i32 @gz_skip(ptr noundef %43, i64 noundef %46)
  %48 = icmp eq i32 %47, -1
  br i1 %48, label %49, label %50

49:                                               ; preds = %40
  store ptr null, ptr %4, align 8
  store i32 1, ptr %13, align 4
  br label %156

50:                                               ; preds = %40
  br label %51

51:                                               ; preds = %50, %35
  %52 = load ptr, ptr %6, align 8, !tbaa !35
  store ptr %52, ptr %10, align 8, !tbaa !35
  %53 = load i32, ptr %7, align 4, !tbaa !7
  %54 = sub i32 %53, 1
  store i32 %54, ptr %8, align 4, !tbaa !7
  %55 = load i32, ptr %8, align 4, !tbaa !7
  %56 = icmp ne i32 %55, 0
  br i1 %56, label %57, label %152

57:                                               ; preds = %51
  br label %58

58:                                               ; preds = %149, %57
  %59 = load ptr, ptr %12, align 8, !tbaa !3
  %60 = getelementptr inbounds nuw %struct.gz_state, ptr %59, i32 0, i32 9
  %61 = load i32, ptr %60, align 8, !tbaa !20
  %62 = icmp eq i32 %61, 0
  br i1 %62, label %63, label %80

63:                                               ; preds = %58
  %64 = load ptr, ptr %12, align 8, !tbaa !3
  %65 = call i32 @gz_make(ptr noundef %64)
  %66 = icmp eq i32 %65, -1
  br i1 %66, label %67, label %68

67:                                               ; preds = %63
  store ptr null, ptr %4, align 8
  store i32 1, ptr %13, align 4
  br label %156

68:                                               ; preds = %63
  %69 = load ptr, ptr %12, align 8, !tbaa !3
  %70 = getelementptr inbounds nuw %struct.gz_state, ptr %69, i32 0, i32 9
  %71 = load i32, ptr %70, align 8, !tbaa !20
  %72 = icmp eq i32 %71, 0
  br i1 %72, label %73, label %79

73:                                               ; preds = %68
  %74 = load ptr, ptr %6, align 8, !tbaa !35
  %75 = load ptr, ptr %10, align 8, !tbaa !35
  %76 = icmp eq ptr %74, %75
  br i1 %76, label %77, label %78

77:                                               ; preds = %73
  store ptr null, ptr %4, align 8
  store i32 1, ptr %13, align 4
  br label %156

78:                                               ; preds = %73
  br label %151

79:                                               ; preds = %68
  br label %80

80:                                               ; preds = %79, %58
  %81 = load ptr, ptr %12, align 8, !tbaa !3
  %82 = getelementptr inbounds nuw %struct.gz_state, ptr %81, i32 0, i32 9
  %83 = load i32, ptr %82, align 8, !tbaa !20
  %84 = load i32, ptr %8, align 4, !tbaa !7
  %85 = icmp ugt i32 %83, %84
  br i1 %85, label %86, label %88

86:                                               ; preds = %80
  %87 = load i32, ptr %8, align 4, !tbaa !7
  br label %92

88:                                               ; preds = %80
  %89 = load ptr, ptr %12, align 8, !tbaa !3
  %90 = getelementptr inbounds nuw %struct.gz_state, ptr %89, i32 0, i32 9
  %91 = load i32, ptr %90, align 8, !tbaa !20
  br label %92

92:                                               ; preds = %88, %86
  %93 = phi i32 [ %87, %86 ], [ %91, %88 ]
  store i32 %93, ptr %9, align 4, !tbaa !7
  %94 = load ptr, ptr %12, align 8, !tbaa !3
  %95 = getelementptr inbounds nuw %struct.gz_state, ptr %94, i32 0, i32 8
  %96 = load ptr, ptr %95, align 8, !tbaa !21
  %97 = load i32, ptr %9, align 4, !tbaa !7
  %98 = zext i32 %97 to i64
  %99 = call ptr @memchr(ptr noundef %96, i32 noundef 10, i64 noundef %98) #10
  store ptr %99, ptr %11, align 8, !tbaa !35
  %100 = load ptr, ptr %11, align 8, !tbaa !35
  %101 = icmp ne ptr %100, null
  br i1 %101, label %102, label %112

102:                                              ; preds = %92
  %103 = load ptr, ptr %11, align 8, !tbaa !35
  %104 = load ptr, ptr %12, align 8, !tbaa !3
  %105 = getelementptr inbounds nuw %struct.gz_state, ptr %104, i32 0, i32 8
  %106 = load ptr, ptr %105, align 8, !tbaa !21
  %107 = ptrtoint ptr %103 to i64
  %108 = ptrtoint ptr %106 to i64
  %109 = sub i64 %107, %108
  %110 = trunc i64 %109 to i32
  %111 = add i32 %110, 1
  store i32 %111, ptr %9, align 4, !tbaa !7
  br label %112

112:                                              ; preds = %102, %92
  %113 = load ptr, ptr %6, align 8, !tbaa !35
  %114 = load ptr, ptr %12, align 8, !tbaa !3
  %115 = getelementptr inbounds nuw %struct.gz_state, ptr %114, i32 0, i32 8
  %116 = load ptr, ptr %115, align 8, !tbaa !21
  %117 = load i32, ptr %9, align 4, !tbaa !7
  %118 = zext i32 %117 to i64
  call void @llvm.memcpy.p0.p0.i64(ptr align 1 %113, ptr align 1 %116, i64 %118, i1 false)
  %119 = load i32, ptr %9, align 4, !tbaa !7
  %120 = load ptr, ptr %12, align 8, !tbaa !3
  %121 = getelementptr inbounds nuw %struct.gz_state, ptr %120, i32 0, i32 9
  %122 = load i32, ptr %121, align 8, !tbaa !20
  %123 = sub i32 %122, %119
  store i32 %123, ptr %121, align 8, !tbaa !20
  %124 = load i32, ptr %9, align 4, !tbaa !7
  %125 = load ptr, ptr %12, align 8, !tbaa !3
  %126 = getelementptr inbounds nuw %struct.gz_state, ptr %125, i32 0, i32 8
  %127 = load ptr, ptr %126, align 8, !tbaa !21
  %128 = zext i32 %124 to i64
  %129 = getelementptr inbounds nuw i8, ptr %127, i64 %128
  store ptr %129, ptr %126, align 8, !tbaa !21
  %130 = load i32, ptr %9, align 4, !tbaa !7
  %131 = zext i32 %130 to i64
  %132 = load ptr, ptr %12, align 8, !tbaa !3
  %133 = getelementptr inbounds nuw %struct.gz_state, ptr %132, i32 0, i32 3
  %134 = load i64, ptr %133, align 8, !tbaa !28
  %135 = add nsw i64 %134, %131
  store i64 %135, ptr %133, align 8, !tbaa !28
  %136 = load i32, ptr %9, align 4, !tbaa !7
  %137 = load i32, ptr %8, align 4, !tbaa !7
  %138 = sub i32 %137, %136
  store i32 %138, ptr %8, align 4, !tbaa !7
  %139 = load i32, ptr %9, align 4, !tbaa !7
  %140 = load ptr, ptr %6, align 8, !tbaa !35
  %141 = zext i32 %139 to i64
  %142 = getelementptr inbounds nuw i8, ptr %140, i64 %141
  store ptr %142, ptr %6, align 8, !tbaa !35
  br label %143

143:                                              ; preds = %112
  %144 = load i32, ptr %8, align 4, !tbaa !7
  %145 = icmp ne i32 %144, 0
  br i1 %145, label %146, label %149

146:                                              ; preds = %143
  %147 = load ptr, ptr %11, align 8, !tbaa !35
  %148 = icmp eq ptr %147, null
  br label %149

149:                                              ; preds = %146, %143
  %150 = phi i1 [ false, %143 ], [ %148, %146 ]
  br i1 %150, label %58, label %151, !llvm.loop !46

151:                                              ; preds = %149, %78
  br label %152

152:                                              ; preds = %151, %51
  %153 = load ptr, ptr %6, align 8, !tbaa !35
  %154 = getelementptr inbounds i8, ptr %153, i64 0
  store i8 0, ptr %154, align 1, !tbaa !44
  %155 = load ptr, ptr %10, align 8, !tbaa !35
  store ptr %155, ptr %4, align 8
  store i32 1, ptr %13, align 4
  br label %156

156:                                              ; preds = %152, %77, %67, %49, %34, %22
  call void @llvm.lifetime.end.p0(i64 8, ptr %12) #8
  call void @llvm.lifetime.end.p0(i64 8, ptr %11) #8
  call void @llvm.lifetime.end.p0(i64 8, ptr %10) #8
  call void @llvm.lifetime.end.p0(i64 4, ptr %9) #8
  call void @llvm.lifetime.end.p0(i64 4, ptr %8) #8
  %157 = load ptr, ptr %4, align 8
  ret ptr %157
}