; Function Attrs: nounwind uwtable
define noundef ptr @gzgets(ptr noundef %0, ptr noundef writeonly %1, i32 noundef %2) local_unnamed_addr #0 {
  %4 = icmp eq ptr %0, null
  %5 = icmp eq ptr %1, null
  %or.cond = or i1 %4, %5
  %6 = icmp slt i32 %2, 1
  %or.cond3 = or i1 %or.cond, %6
  br i1 %or.cond3, label %gz_skip.exit, label %7

7:                                                ; preds = %3
  %8 = load i32, ptr %0, align 8, !tbaa !3
  %.not = icmp eq i32 %8, 7247
  br i1 %.not, label %9, label %gz_skip.exit

9:                                                ; preds = %7
  %10 = getelementptr inbounds nuw i8, ptr %0, i64 108
  %11 = load i32, ptr %10, align 4, !tbaa !13
  %.not57 = icmp eq i32 %11, 0
  br i1 %.not57, label %12, label %gz_skip.exit

12:                                               ; preds = %9
  %13 = getelementptr inbounds nuw i8, ptr %0, i64 104
  %14 = load i32, ptr %13, align 8, !tbaa !14
  %.not58 = icmp eq i32 %14, 0
  br i1 %.not58, label %gz_skip.exit.thread, label %15

15:                                               ; preds = %12
  store i32 0, ptr %13, align 8, !tbaa !14
  %16 = getelementptr inbounds nuw i8, ptr %0, i64 96
  %17 = load i64, ptr %16, align 8, !tbaa !15
  %18 = getelementptr inbounds nuw i8, ptr %0, i64 128
  %.not21.i = icmp eq i64 %17, 0
  br i1 %.not21.i, label %gz_skip.exit.thread, label %.lr.ph.i

.lr.ph.i:                                         ; preds = %15
  %19 = getelementptr inbounds nuw i8, ptr %0, i64 56
  %20 = getelementptr inbounds nuw i8, ptr %0, i64 48
  %21 = getelementptr inbounds nuw i8, ptr %0, i64 16
  %22 = getelementptr inbounds nuw i8, ptr %0, i64 60
  br label %23

23:                                               ; preds = %44, %.lr.ph.i
  %.01722.i = phi i64 [ %17, %.lr.ph.i ], [ %.1.i, %44 ]
  %24 = load i32, ptr %19, align 8, !tbaa !16
  %.not19.i = icmp eq i32 %24, 0
  br i1 %.not19.i, label %36, label %25

25:                                               ; preds = %23
  %26 = zext i32 %24 to i64
  %27 = tail call i64 @llvm.smin.i64(i64 %.01722.i, i64 %26)
  %28 = trunc i64 %27 to i32
  %29 = sub i32 %24, %28
  store i32 %29, ptr %19, align 8, !tbaa !16
  %30 = load ptr, ptr %20, align 8, !tbaa !17
  %31 = and i64 %27, 4294967295
  %32 = getelementptr inbounds nuw i8, ptr %30, i64 %31
  store ptr %32, ptr %20, align 8, !tbaa !17
  %33 = load i64, ptr %21, align 8, !tbaa !18
  %34 = add nsw i64 %33, %31
  store i64 %34, ptr %21, align 8, !tbaa !18
  %35 = sub nsw i64 %.01722.i, %31
  br label %44

36:                                               ; preds = %23
  %37 = load i32, ptr %22, align 4, !tbaa !19
  %.not20.i = icmp eq i32 %37, 0
  br i1 %.not20.i, label %41, label %38

38:                                               ; preds = %36
  %39 = load i32, ptr %18, align 8, !tbaa !20
  %40 = icmp eq i32 %39, 0
  br i1 %40, label %gz_skip.exit.thread, label %41

41:                                               ; preds = %38, %36
  %42 = tail call fastcc i32 @gz_make(ptr noundef nonnull %0)
  %43 = icmp eq i32 %42, -1
  br i1 %43, label %gz_skip.exit, label %44

44:                                               ; preds = %41, %25
  %.1.i = phi i64 [ %35, %25 ], [ %.01722.i, %41 ]
  %.not.i = icmp eq i64 %.1.i, 0
  br i1 %.not.i, label %gz_skip.exit.thread, label %23, !llvm.loop !21

gz_skip.exit.thread:                              ; preds = %38, %44, %15, %12
  %45 = add nsw i32 %2, -1
  %.not59 = icmp eq i32 %45, 0
  br i1 %.not59, label %.loopexit, label %.preheader

.preheader:                                       ; preds = %gz_skip.exit.thread
  %46 = getelementptr inbounds nuw i8, ptr %0, i64 56
  %47 = getelementptr inbounds nuw i8, ptr %0, i64 48
  %48 = getelementptr inbounds nuw i8, ptr %0, i64 16
  %.pre = load i32, ptr %46, align 8, !tbaa !16
  br label %49

49:                                               ; preds = %.preheader, %60
  %50 = phi i32 [ %72, %60 ], [ %.pre, %.preheader ]
  %.048 = phi i32 [ %77, %60 ], [ %45, %.preheader ]
  %.1 = phi ptr [ %78, %60 ], [ %1, %.preheader ]
  %51 = icmp eq i32 %50, 0
  br i1 %51, label %52, label %60

52:                                               ; preds = %49
  %53 = tail call fastcc i32 @gz_make(ptr noundef %0)
  %54 = icmp eq i32 %53, -1
  br i1 %54, label %gz_skip.exit, label %55

55:                                               ; preds = %52
  %56 = load i32, ptr %46, align 8, !tbaa !16
  %57 = icmp eq i32 %56, 0
  br i1 %57, label %58, label %60

58:                                               ; preds = %55
  %59 = icmp eq ptr %.1, %1
  br i1 %59, label %gz_skip.exit, label %.loopexit

60:                                               ; preds = %55, %49
  %61 = phi i32 [ %56, %55 ], [ %50, %49 ]
  %.048. = tail call i32 @llvm.umin.i32(i32 %61, i32 %.048)
  %62 = load ptr, ptr %47, align 8, !tbaa !17
  %63 = zext i32 %.048. to i64
  %64 = tail call ptr @memchr(ptr noundef %62, i32 noundef 10, i64 noundef %63) #14
  %.not60 = icmp eq ptr %64, null
  %65 = ptrtoint ptr %64 to i64
  %66 = ptrtoint ptr %62 to i64
  %67 = sub i64 %65, %66
  %68 = trunc i64 %67 to i32
  %69 = add i32 %68, 1
  %.049 = select i1 %.not60, i32 %.048., i32 %69
  %70 = zext i32 %.049 to i64
  tail call void @llvm.memcpy.p0.p0.i64(ptr align 1 %.1, ptr align 1 %62, i64 %70, i1 false)
  %71 = load i32, ptr %46, align 8, !tbaa !16
  %72 = sub i32 %71, %.049
  store i32 %72, ptr %46, align 8, !tbaa !16
  %73 = load ptr, ptr %47, align 8, !tbaa !17
  %74 = getelementptr inbounds nuw i8, ptr %73, i64 %70
  store ptr %74, ptr %47, align 8, !tbaa !17
  %75 = load i64, ptr %48, align 8, !tbaa !18
  %76 = add nsw i64 %75, %70
  store i64 %76, ptr %48, align 8, !tbaa !18
  %77 = sub i32 %.048, %.049
  %78 = getelementptr inbounds nuw i8, ptr %.1, i64 %70
  %79 = icmp ne i32 %77, 0
  %80 = and i1 %.not60, %79
  br i1 %80, label %49, label %.loopexit, !llvm.loop !42

.loopexit:                                        ; preds = %60, %58, %gz_skip.exit.thread
  %.047 = phi ptr [ %.1, %58 ], [ %1, %gz_skip.exit.thread ], [ %78, %60 ]
  store i8 0, ptr %.047, align 1, !tbaa !40
  br label %gz_skip.exit

gz_skip.exit:                                     ; preds = %41, %52, %58, %7, %9, %3, %.loopexit
  %.0 = phi ptr [ %1, %.loopexit ], [ null, %3 ], [ null, %9 ], [ null, %7 ], [ null, %58 ], [ null, %52 ], [ null, %41 ]
  ret ptr %.0
}